; Function Attrs: nounwind uwtable
define noalias noundef ptr @Saig_ManBmcTerSim(ptr noundef readonly captures(none) %0) local_unnamed_addr #0 {
  %2 = tail call noalias dereferenceable_or_null(16) ptr @malloc(i64 noundef 16) #27
  %3 = getelementptr inbounds nuw i8, ptr %2, i64 4
  store i32 0, ptr %3, align 4, !tbaa !32
  store i32 100, ptr %2, align 8, !tbaa !42
  %4 = tail call noalias dereferenceable_or_null(800) ptr @malloc(i64 noundef 800) #27
  %5 = getelementptr inbounds nuw i8, ptr %2, i64 8
  store ptr %4, ptr %5, align 8, !tbaa !23
  %6 = getelementptr i8, ptr %0, i64 104
  %7 = getelementptr inbounds nuw i8, ptr %0, i64 24
  %8 = getelementptr i8, ptr %0, i64 112
  br label %9

9:                                                ; preds = %1, %Vec_PtrPush.exit
  %10 = phi i32 [ 100, %1 ], [ %62, %Vec_PtrPush.exit ]
  %11 = phi i32 [ 0, %1 ], [ %64, %Vec_PtrPush.exit ]
  %.023 = phi i32 [ 0, %1 ], [ %spec.select, %Vec_PtrPush.exit ]
  %.01722 = phi ptr [ null, %1 ], [ %40, %Vec_PtrPush.exit ]
  %.01821 = phi i32 [ 1000000000, %1 ], [ %.014.i, %Vec_PtrPush.exit ]
  %.01920 = phi i32 [ 0, %1 ], [ %67, %Vec_PtrPush.exit ]
  %12 = icmp eq ptr %.01722, null
  %.val.i = load i32, ptr %6, align 8, !tbaa !3
  br i1 %12, label %Saig_ManBmcTerSimCount01.exit, label %.preheader.i

.preheader.i:                                     ; preds = %9
  %13 = icmp sgt i32 %.val.i, 0
  br i1 %13, label %.lr.ph.i, label %Saig_ManBmcTerSimCount01.exit

.lr.ph.i:                                         ; preds = %.preheader.i
  %14 = load ptr, ptr %7, align 8, !tbaa !21
  %.val17.i = load i32, ptr %8, align 8, !tbaa !22
  %15 = getelementptr i8, ptr %14, i64 8
  %.val18.i = load ptr, ptr %15, align 8, !tbaa !23
  %16 = sext i32 %.val17.i to i64
  %wide.trip.count.i = zext nneg i32 %.val.i to i64
  %invariant.gep.i = getelementptr ptr, ptr %.val18.i, i64 %16
  br label %17

17:                                               ; preds = %38, %.lr.ph.i
  %indvars.iv.i = phi i64 [ 0, %.lr.ph.i ], [ %indvars.iv.next.i, %38 ]
  %.023.i = phi i32 [ 0, %.lr.ph.i ], [ %.1.i, %38 ]
  %gep.i = getelementptr ptr, ptr %invariant.gep.i, i64 %indvars.iv.i
  %18 = load ptr, ptr %gep.i, align 8, !tbaa !25
  %19 = getelementptr i8, ptr %18, i64 8
  %.val19.i = load ptr, ptr %19, align 8, !tbaa !26
  %20 = ptrtoint ptr %.val19.i to i64
  %21 = and i64 %20, -2
  %22 = inttoptr i64 %21 to ptr
  %23 = getelementptr i8, ptr %22, i64 24
  %.val20.i = load i64, ptr %23, align 8
  %24 = and i64 %.val20.i, 7
  %.not.i = icmp eq i64 %24, 1
  br i1 %.not.i, label %38, label %25

25:                                               ; preds = %17
  %26 = getelementptr i8, ptr %18, i64 36
  %.val21.i = load i32, ptr %26, align 4, !tbaa !27
  %27 = ashr i32 %.val21.i, 4
  %28 = sext i32 %27 to i64
  %29 = getelementptr inbounds i32, ptr %.01722, i64 %28
  %30 = load i32, ptr %29, align 4, !tbaa !28
  %31 = shl i32 %.val21.i, 1
  %32 = and i32 %31, 30
  %33 = lshr i32 %30, %32
  %34 = and i32 %33, 3
  %35 = icmp ne i32 %34, 3
  %36 = zext i1 %35 to i32
  %37 = add nsw i32 %.023.i, %36
  br label %38

38:                                               ; preds = %25, %17
  %.1.i = phi i32 [ %.023.i, %17 ], [ %37, %25 ]
  %indvars.iv.next.i = add nuw nsw i64 %indvars.iv.i, 1
  %exitcond.not.i = icmp eq i64 %indvars.iv.next.i, %wide.trip.count.i
  br i1 %exitcond.not.i, label %Saig_ManBmcTerSimCount01.exit, label %17, !llvm.loop !29

Saig_ManBmcTerSimCount01.exit:                    ; preds = %38, %9, %.preheader.i
  %.014.i = phi i32 [ 0, %.preheader.i ], [ %.val.i, %9 ], [ %.1.i, %38 ]
  %.not = icmp sge i32 %.014.i, %.01821
  %39 = zext i1 %.not to i32
  %spec.select = add nuw nsw i32 %.023, %39
  %40 = tail call ptr @Saig_ManBmcTerSimOne(ptr noundef %0, ptr noundef %.01722)
  %41 = icmp eq i32 %11, %10
  br i1 %41, label %42, label %.Vec_PtrGrow.exit11_crit_edge.i

.Vec_PtrGrow.exit11_crit_edge.i:                  ; preds = %Saig_ManBmcTerSimCount01.exit
  %.pre.i = load ptr, ptr %5, align 8, !tbaa !23
  br label %Vec_PtrPush.exit

42:                                               ; preds = %Saig_ManBmcTerSimCount01.exit
  %43 = icmp slt i32 %10, 16
  br i1 %43, label %44, label %51

44:                                               ; preds = %42
  %45 = load ptr, ptr %5, align 8, !tbaa !23
  %.not9.i.i = icmp eq ptr %45, null
  br i1 %.not9.i.i, label %48, label %46

46:                                               ; preds = %44
  %47 = tail call dereferenceable_or_null(128) ptr @realloc(ptr noundef nonnull %45, i64 noundef 128) #28
  br label %Vec_PtrGrow.exit.i

48:                                               ; preds = %44
  %49 = tail call noalias dereferenceable_or_null(128) ptr @malloc(i64 noundef 128) #27
  br label %Vec_PtrGrow.exit.i

Vec_PtrGrow.exit.i:                               ; preds = %48, %46
  %50 = phi ptr [ %47, %46 ], [ %49, %48 ]
  store ptr %50, ptr %5, align 8, !tbaa !23
  store i32 16, ptr %2, align 8, !tbaa !42
  br label %Vec_PtrPush.exit

51:                                               ; preds = %42
  %52 = shl nuw nsw i32 %10, 1
  %53 = load ptr, ptr %5, align 8, !tbaa !23
  %.not9.i10.i = icmp eq ptr %53, null
  %54 = zext nneg i32 %52 to i64
  %55 = shl nuw nsw i64 %54, 3
  br i1 %.not9.i10.i, label %58, label %56

56:                                               ; preds = %51
  %57 = tail call ptr @realloc(ptr noundef nonnull %53, i64 noundef %55) #28
  br label %60

58:                                               ; preds = %51
  %59 = tail call noalias ptr @malloc(i64 noundef %55) #27
  br label %60

60:                                               ; preds = %58, %56
  %61 = phi ptr [ %57, %56 ], [ %59, %58 ]
  store ptr %61, ptr %5, align 8, !tbaa !23
  store i32 %52, ptr %2, align 8, !tbaa !42
  br label %Vec_PtrPush.exit

Vec_PtrPush.exit:                                 ; preds = %.Vec_PtrGrow.exit11_crit_edge.i, %Vec_PtrGrow.exit.i, %60
  %62 = phi i32 [ %10, %.Vec_PtrGrow.exit11_crit_edge.i ], [ %52, %60 ], [ 16, %Vec_PtrGrow.exit.i ]
  %63 = phi ptr [ %.pre.i, %.Vec_PtrGrow.exit11_crit_edge.i ], [ %61, %60 ], [ %50, %Vec_PtrGrow.exit.i ]
  %64 = add nuw nsw i32 %11, 1
  store i32 %64, ptr %3, align 4, !tbaa !32
  %65 = zext nneg i32 %11 to i64
  %66 = getelementptr inbounds nuw ptr, ptr %63, i64 %65
  store ptr %40, ptr %66, align 8, !tbaa !25
  %67 = add nuw nsw i32 %.01920, 1
  %68 = icmp samesign ult i32 %.01920, 999
  %69 = icmp samesign ult i32 %spec.select, 5
  %or.cond = select i1 %68, i1 %69, i1 false
  %70 = icmp sgt i32 %.014.i, 0
  %or.cond3 = and i1 %70, %or.cond
  br i1 %or.cond3, label %9, label %.critedge, !llvm.loop !43

.critedge:                                        ; preds = %Vec_PtrPush.exit
  ret ptr %2
}